target datalayout = "e-m:e-p270:32:32-p271:32:32-p272:64:64-i64:64-i128:128-f80:128-n8:16:32:64-S128"
target triple = "x86_64-pc-linux-gnu"

%"class.std::__cxx11::basic_string" = type { %"struct.std::__cxx11::basic_string<char>::_Alloc_hider", i64, %union.anon }
%"struct.std::__cxx11::basic_string<char>::_Alloc_hider" = type { ptr }
%union.anon = type { i64, [8 x i8] }
%class.ArgInfo = type <{ ptr, i8, i8, i8, i8, [4 x i8] }>

@_ZTISt9exception = external constant ptr
@opencv_error = external global ptr, align 8
@.str.81 = private unnamed_addr constant [21 x i8] c"Conversion error: %s\00", align 1
@.str.82 = private unnamed_addr constant [31 x i8] c"Conversion error: %s, what: %s\00", align 1

; Function Attrs: mustprogress uwtable
define internal noundef zeroext i1 @_ZL16pyopencv_to_safeIbEbP7_objectRT_RK7ArgInfo(ptr noundef %0, ptr noundef nonnull align 1 dereferenceable(1) %1, ptr noundef nonnull align 8 dereferenceable(12) %2) #4 personality ptr @__gxx_personality_v0 {
  %4 = alloca i1, align 1
  %5 = alloca ptr, align 8
  %6 = alloca ptr, align 8
  %7 = alloca ptr, align 8
  %8 = alloca ptr, align 8
  %9 = alloca i32, align 4
  %10 = alloca %"class.std::__cxx11::basic_string", align 8
  %11 = alloca ptr, align 8
  %12 = alloca %"class.std::__cxx11::basic_string", align 8
  store ptr %0, ptr %5, align 8
  store ptr %1, ptr %6, align 8
  store ptr %2, ptr %7, align 8
  %13 = load ptr, ptr %5, align 8
  %14 = load ptr, ptr %6, align 8
  %15 = load ptr, ptr %7, align 8
  %16 = invoke noundef zeroext i1 @_Z11pyopencv_toIbEbP7_objectRT_RK7ArgInfo(ptr noundef %13, ptr noundef nonnull align 1 dereferenceable(1) %14, ptr noundef nonnull align 8 dereferenceable(12) %15)
          to label %17 unwind label %18

17:                                               ; preds = %3
  store i1 %16, ptr %4, align 1
  br label %72

18:                                               ; preds = %3
  %19 = landingpad { ptr, i32 }
          catch ptr @_ZTISt9exception
          catch ptr null
  %20 = extractvalue { ptr, i32 } %19, 0
  store ptr %20, ptr %8, align 8
  %21 = extractvalue { ptr, i32 } %19, 1
  store i32 %21, ptr %9, align 4
  br label %22

22:                                               ; preds = %18
  %23 = load i32, ptr %9, align 4
  %24 = call i32 @llvm.eh.typeid.for.p0(ptr @_ZTISt9exception) #3
  %25 = icmp eq i32 %23, %24
  br i1 %25, label %26, label %41

26:                                               ; preds = %22
  %27 = load ptr, ptr %8, align 8
  %28 = call ptr @__cxa_begin_catch(ptr %27) #3
  store ptr %28, ptr %11, align 8
  %29 = load ptr, ptr @opencv_error, align 8
  %30 = load ptr, ptr %7, align 8
  %31 = getelementptr inbounds %class.ArgInfo, ptr %30, i32 0, i32 0
  %32 = load ptr, ptr %31, align 8
  %33 = load ptr, ptr %11, align 8
  %34 = load ptr, ptr %33, align 8
  %35 = getelementptr inbounds ptr, ptr %34, i64 2
  %36 = load ptr, ptr %35, align 8
  %37 = call noundef ptr %36(ptr noundef nonnull align 8 dereferenceable(8) %33) #3
  invoke void (ptr, ptr, ...) @_ZN2cv6formatB5cxx11EPKcz(ptr dead_on_unwind writable sret(%"class.std::__cxx11::basic_string") align 8 %12, ptr noundef @.str.82, ptr noundef %32, ptr noundef %37)
          to label %38 unwind label %61

38:                                               ; preds = %26
  %39 = call noundef ptr @_ZNKSt7__cxx1112basic_stringIcSt11char_traitsIcESaIcEE5c_strEv(ptr noundef nonnull align 8 dereferenceable(32) %12) #3
  invoke void @PyErr_SetString(ptr noundef %29, ptr noundef %39)
          to label %40 unwind label %65

40:                                               ; preds = %38
  call void @_ZNSt7__cxx1112basic_stringIcSt11char_traitsIcESaIcEED1Ev(ptr noundef nonnull align 8 dereferenceable(32) %12) #3
  store i1 false, ptr %4, align 1
  call void @__cxa_end_catch()
  br label %72

41:                                               ; preds = %22
  %42 = load ptr, ptr %8, align 8
  %43 = call ptr @__cxa_begin_catch(ptr %42) #3
  %44 = load ptr, ptr @opencv_error, align 8
  %45 = load ptr, ptr %7, align 8
  %46 = getelementptr inbounds %class.ArgInfo, ptr %45, i32 0, i32 0
  %47 = load ptr, ptr %46, align 8
  invoke void (ptr, ptr, ...) @_ZN2cv6formatB5cxx11EPKcz(ptr dead_on_unwind writable sret(%"class.std::__cxx11::basic_string") align 8 %10, ptr noundef @.str.81, ptr noundef %47)
          to label %48 unwind label %51

48:                                               ; preds = %41
  %49 = call noundef ptr @_ZNKSt7__cxx1112basic_stringIcSt11char_traitsIcESaIcEE5c_strEv(ptr noundef nonnull align 8 dereferenceable(32) %10) #3
  invoke void @PyErr_SetString(ptr noundef %44, ptr noundef %49)
          to label %50 unwind label %55

50:                                               ; preds = %48
  call void @_ZNSt7__cxx1112basic_stringIcSt11char_traitsIcESaIcEED1Ev(ptr noundef nonnull align 8 dereferenceable(32) %10) #3
  store i1 false, ptr %4, align 1
  call void @__cxa_end_catch()
  br label %72

51:                                               ; preds = %41
  %52 = landingpad { ptr, i32 }
          cleanup
  %53 = extractvalue { ptr, i32 } %52, 0
  store ptr %53, ptr %8, align 8
  %54 = extractvalue { ptr, i32 } %52, 1
  store i32 %54, ptr %9, align 4
  br label %59

55:                                               ; preds = %48
  %56 = landingpad { ptr, i32 }
          cleanup
  %57 = extractvalue { ptr, i32 } %56, 0
  store ptr %57, ptr %8, align 8
  %58 = extractvalue { ptr, i32 } %56, 1
  store i32 %58, ptr %9, align 4
  call void @_ZNSt7__cxx1112basic_stringIcSt11char_traitsIcESaIcEED1Ev(ptr noundef nonnull align 8 dereferenceable(32) %10) #3
  br label %59

59:                                               ; preds = %55, %51
  invoke void @__cxa_end_catch()
          to label %60 unwind label %79

60:                                               ; preds = %59
  br label %74

61:                                               ; preds = %26
  %62 = landingpad { ptr, i32 }
          cleanup
  %63 = extractvalue { ptr, i32 } %62, 0
  store ptr %63, ptr %8, align 8
  %64 = extractvalue { ptr, i32 } %62, 1
  store i32 %64, ptr %9, align 4
  br label %69

65:                                               ; preds = %38
  %66 = landingpad { ptr, i32 }
          cleanup
  %67 = extractvalue { ptr, i32 } %66, 0
  store ptr %67, ptr %8, align 8
  %68 = extractvalue { ptr, i32 } %66, 1
  store i32 %68, ptr %9, align 4
  call void @_ZNSt7__cxx1112basic_stringIcSt11char_traitsIcESaIcEED1Ev(ptr noundef nonnull align 8 dereferenceable(32) %12) #3
  br label %69

69:                                               ; preds = %65, %61
  invoke void @__cxa_end_catch()
          to label %70 unwind label %79

70:                                               ; preds = %69
  br label %74

71:                                               ; No predecessors!
  call void @llvm.trap()
  unreachable

72:                                               ; preds = %50, %40, %17
  %73 = load i1, ptr %4, align 1
  ret i1 %73

74:                                               ; preds = %70, %60
  %75 = load ptr, ptr %8, align 8
  %76 = load i32, ptr %9, align 4
  %77 = insertvalue { ptr, i32 } poison, ptr %75, 0
  %78 = insertvalue { ptr, i32 } %77, i32 %76, 1
  resume { ptr, i32 } %78

79:                                               ; preds = %69, %59
  %80 = landingpad { ptr, i32 }
          catch ptr null
  %81 = extractvalue { ptr, i32 } %80, 0
  call void @__clang_call_terminate(ptr %81) #11
  unreachable
}