; Function Attrs: mustprogress uwtable
define internal fastcc noundef zeroext i1 @_ZL16pyopencv_to_safeIbEbP7_objectRT_RK7ArgInfo(ptr noundef %0, ptr nocapture noundef nonnull writeonly align 1 dereferenceable(1) %1, ptr nocapture noundef nonnull readonly align 8 dereferenceable(12) %2) unnamed_addr #3 personality ptr @__gxx_personality_v0 {
  %4 = alloca %"class.std::__cxx11::basic_string", align 8
  %5 = alloca %"class.std::__cxx11::basic_string", align 8
  %6 = invoke noundef zeroext i1 @_Z11pyopencv_toIbEbP7_objectRT_RK7ArgInfo(ptr noundef %0, ptr noundef nonnull align 1 dereferenceable(1) %1, ptr noundef nonnull align 8 dereferenceable(12) %2)
          to label %36 unwind label %7

7:                                                ; preds = %3
  %8 = landingpad { ptr, i32 }
          catch ptr @_ZTISt9exception
          catch ptr null
  %9 = extractvalue { ptr, i32 } %8, 0
  %10 = extractvalue { ptr, i32 } %8, 1
  %11 = tail call i32 @llvm.eh.typeid.for.p0(ptr nonnull @_ZTISt9exception) #12
  %12 = icmp eq i32 %10, %11
  %13 = tail call ptr @__cxa_begin_catch(ptr %9) #12
  %14 = load ptr, ptr @opencv_error, align 8
  %15 = load ptr, ptr %2, align 8
  br i1 %12, label %16, label %23

16:                                               ; preds = %7
  %17 = load ptr, ptr %13, align 8
  %18 = getelementptr inbounds i8, ptr %17, i64 16
  %19 = load ptr, ptr %18, align 8
  %20 = tail call noundef ptr %19(ptr noundef nonnull align 8 dereferenceable(8) %13) #12
  invoke void (ptr, ptr, ...) @_ZN2cv6formatB5cxx11EPKcz(ptr dead_on_unwind nonnull writable sret(%"class.std::__cxx11::basic_string") align 8 %5, ptr noundef nonnull @.str.82, ptr noundef %15, ptr noundef %20)
          to label %21 unwind label %31

21:                                               ; preds = %16
  %22 = call noundef ptr @_ZNKSt7__cxx1112basic_stringIcSt11char_traitsIcESaIcEE5c_strEv(ptr noundef nonnull align 8 dereferenceable(32) %5) #12
  invoke void @PyErr_SetString(ptr noundef %14, ptr noundef %22)
          to label %.sink.split unwind label %33

23:                                               ; preds = %7
  invoke void (ptr, ptr, ...) @_ZN2cv6formatB5cxx11EPKcz(ptr dead_on_unwind nonnull writable sret(%"class.std::__cxx11::basic_string") align 8 %4, ptr noundef nonnull @.str.81, ptr noundef %15)
          to label %24 unwind label %26

24:                                               ; preds = %23
  %25 = call noundef ptr @_ZNKSt7__cxx1112basic_stringIcSt11char_traitsIcESaIcEE5c_strEv(ptr noundef nonnull align 8 dereferenceable(32) %4) #12
  invoke void @PyErr_SetString(ptr noundef %14, ptr noundef %25)
          to label %.sink.split unwind label %28

26:                                               ; preds = %23
  %27 = landingpad { ptr, i32 }
          cleanup
  br label %30

28:                                               ; preds = %24
  %29 = landingpad { ptr, i32 }
          cleanup
  call void @_ZNSt7__cxx1112basic_stringIcSt11char_traitsIcESaIcEED1Ev(ptr noundef nonnull align 8 dereferenceable(32) %4) #12
  br label %30

30:                                               ; preds = %28, %26
  %.pn = phi { ptr, i32 } [ %29, %28 ], [ %27, %26 ]
  invoke void @__cxa_end_catch()
          to label %37 unwind label %38

31:                                               ; preds = %16
  %32 = landingpad { ptr, i32 }
          cleanup
  br label %35

33:                                               ; preds = %21
  %34 = landingpad { ptr, i32 }
          cleanup
  call void @_ZNSt7__cxx1112basic_stringIcSt11char_traitsIcESaIcEED1Ev(ptr noundef nonnull align 8 dereferenceable(32) %5) #12
  br label %35

35:                                               ; preds = %33, %31
  %.pn16 = phi { ptr, i32 } [ %34, %33 ], [ %32, %31 ]
  invoke void @__cxa_end_catch()
          to label %37 unwind label %38

.sink.split:                                      ; preds = %24, %21
  %.sink = phi ptr [ %5, %21 ], [ %4, %24 ]
  call void @_ZNSt7__cxx1112basic_stringIcSt11char_traitsIcESaIcEED1Ev(ptr noundef nonnull align 8 dereferenceable(32) %.sink) #12
  call void @__cxa_end_catch()
  br label %36

36:                                               ; preds = %.sink.split, %3
  %.0 = phi i1 [ %6, %3 ], [ false, %.sink.split ]
  ret i1 %.0

37:                                               ; preds = %35, %30
  %.pn16.pn = phi { ptr, i32 } [ %.pn16, %35 ], [ %.pn, %30 ]
  resume { ptr, i32 } %.pn16.pn

38:                                               ; preds = %35, %30
  %39 = landingpad { ptr, i32 }
          catch ptr null
  %40 = extractvalue { ptr, i32 } %39, 0
  call void @__clang_call_terminate(ptr %40) #13
  unreachable
}